; Function Attrs: mustprogress nofree norecurse nosync nounwind willreturn memory(readwrite, inaccessiblemem: none) uwtable
define hidden void @_ZN5zxing6qrcode9DataBlock12getCodewordsEv(ptr dead_on_unwind noalias nocapture writable writeonly sret(%"class.zxing::ArrayRef") align 8 %0, ptr nocapture noundef nonnull readonly align 8 dereferenceable(40) %1) local_unnamed_addr #2 align 2 personality ptr @__gxx_personality_v0 {
  %3 = getelementptr inbounds i8, ptr %0, i64 8
  store i32 0, ptr %3, align 8
  store ptr getelementptr inbounds inrange(-16, 16) (i8, ptr @_ZTVN5zxing8ArrayRefIcEE, i64 16), ptr %0, align 8
  %4 = getelementptr inbounds i8, ptr %1, i64 32
  %5 = load ptr, ptr %4, align 8
  %.not.i.i = icmp eq ptr %5, null
  br i1 %.not.i.i, label %_ZN5zxing8ArrayRefIcEC2ERKS1_.exit, label %6

6:                                                ; preds = %2
  %7 = getelementptr inbounds i8, ptr %5, i64 8
  %8 = load i32, ptr %7, align 8
  %9 = add i32 %8, 1
  store i32 %9, ptr %7, align 8
  br label %_ZN5zxing8ArrayRefIcEC2ERKS1_.exit

_ZN5zxing8ArrayRefIcEC2ERKS1_.exit:               ; preds = %6, %2
  %10 = getelementptr inbounds i8, ptr %0, i64 16
  store ptr %5, ptr %10, align 8
  ret void
}